target datalayout = "e-m:e-p270:32:32-p271:32:32-p272:64:64-i64:64-i128:128-f80:128-n8:16:32:64-S128"
target triple = "x86_64-pc-linux-gnu"

%"class.Ipopt::ReferencedObject.base" = type <{ ptr, i32 }>
%"class.Ipopt::SmartPtr.0" = type { ptr }
%"class.Ipopt::SmartPtr.10" = type { ptr }
%"class.Ipopt::VectorSpace" = type { %"class.Ipopt::ReferencedObject.base", i32 }
%"class.Ipopt::PointPerturber" = type { %"class.Ipopt::ReferencedObject.base", %"class.Ipopt::SmartPtr.0", %"class.Ipopt::SmartPtr.0" }
%"class.Ipopt::ReferencedObject" = type <{ ptr, i32, [4 x i8] }>
%"class.Ipopt::Vector" = type <{ %"class.Ipopt::TaggedObject", %"class.Ipopt::SmartPtr.10", %"class.Ipopt::CachedResults", i32, [4 x i8], double, i32, [4 x i8], double, i32, [4 x i8], double, i32, [4 x i8], double, i32, [4 x i8], double, i32, [4 x i8], double, i32, [4 x i8], double, i32, i8, [3 x i8] }>
%"class.Ipopt::TaggedObject" = type { %"class.Ipopt::ReferencedObject.base", %"class.Ipopt::Subject", i32, i32 }
%"class.Ipopt::Subject" = type { ptr, %"class.std::vector" }
%"class.std::vector" = type { %"struct.std::_Vector_base" }
%"struct.std::_Vector_base" = type { %"struct.std::_Vector_base<Ipopt::Observer *, std::allocator<Ipopt::Observer *>>::_Vector_impl" }
%"struct.std::_Vector_base<Ipopt::Observer *, std::allocator<Ipopt::Observer *>>::_Vector_impl" = type { %"struct.std::_Vector_base<Ipopt::Observer *, std::allocator<Ipopt::Observer *>>::_Vector_impl_data" }
%"struct.std::_Vector_base<Ipopt::Observer *, std::allocator<Ipopt::Observer *>>::_Vector_impl_data" = type { ptr, ptr, ptr }
%"class.Ipopt::CachedResults" = type { ptr, i32, ptr }

; Function Attrs: inlinehint mustprogress nounwind uwtable
define linkonce_odr noundef i32 @_ZNK5Ipopt16ReferencedObject14ReferenceCountEv(ptr noundef nonnull align 8 dereferenceable(12) %0) #11 comdat align 2 {
  %2 = alloca ptr, align 8
  store ptr %0, ptr %2, align 8, !tbaa !116
  %3 = load ptr, ptr %2, align 8
  %4 = getelementptr inbounds nuw %"class.Ipopt::ReferencedObject", ptr %3, i32 0, i32 1
  %5 = load i32, ptr %4, align 8, !tbaa !118
  ret i32 %5
}

; Function Attrs: inlinehint mustprogress nounwind uwtable
define linkonce_odr void @_ZNK5Ipopt16ReferencedObject10ReleaseRefEPKNS_10ReferencerE(ptr noundef nonnull align 8 dereferenceable(12) %0, ptr noundef %1) #11 comdat align 2 {
  %3 = alloca ptr, align 8
  %4 = alloca ptr, align 8
  store ptr %0, ptr %3, align 8, !tbaa !116
  store ptr %1, ptr %4, align 8, !tbaa !168
  %5 = load ptr, ptr %3, align 8
  %6 = getelementptr inbounds nuw %"class.Ipopt::ReferencedObject", ptr %5, i32 0, i32 1
  %7 = load i32, ptr %6, align 8, !tbaa !118
  %8 = add nsw i32 %7, -1
  store i32 %8, ptr %6, align 8, !tbaa !118
  ret void
}

; Function Attrs: inlinehint mustprogress nounwind uwtable
define linkonce_odr void @_ZNK5Ipopt16ReferencedObject6AddRefEPKNS_10ReferencerE(ptr noundef nonnull align 8 dereferenceable(12) %0, ptr noundef %1) #11 comdat align 2 {
  %3 = alloca ptr, align 8
  %4 = alloca ptr, align 8
  store ptr %0, ptr %3, align 8, !tbaa !116
  store ptr %1, ptr %4, align 8, !tbaa !168
  %5 = load ptr, ptr %3, align 8
  %6 = getelementptr inbounds nuw %"class.Ipopt::ReferencedObject", ptr %5, i32 0, i32 1
  %7 = load i32, ptr %6, align 8, !tbaa !118
  %8 = add nsw i32 %7, 1
  store i32 %8, ptr %6, align 8, !tbaa !118
  ret void
}

; Function Attrs: mustprogress nounwind uwtable
define linkonce_odr void @_ZN5Ipopt8SmartPtrINS_6VectorEE15ReleasePointer_Ev(ptr noundef nonnull align 8 dereferenceable(8) %0) #4 comdat align 2 {
  %2 = alloca ptr, align 8
  store ptr %0, ptr %2, align 8, !tbaa !55
  %3 = load ptr, ptr %2, align 8
  %4 = getelementptr inbounds nuw %"class.Ipopt::SmartPtr.0", ptr %3, i32 0, i32 0
  %5 = load ptr, ptr %4, align 8, !tbaa !86
  %6 = icmp ne ptr %5, null
  br i1 %6, label %7, label %25

7:                                                ; preds = %1
  %8 = getelementptr inbounds nuw %"class.Ipopt::SmartPtr.0", ptr %3, i32 0, i32 0
  %9 = load ptr, ptr %8, align 8, !tbaa !86
  call void @_ZNK5Ipopt16ReferencedObject10ReleaseRefEPKNS_10ReferencerE(ptr noundef nonnull align 8 dereferenceable(12) %9, ptr noundef %3)
  %10 = getelementptr inbounds nuw %"class.Ipopt::SmartPtr.0", ptr %3, i32 0, i32 0
  %11 = load ptr, ptr %10, align 8, !tbaa !86
  %12 = call noundef i32 @_ZNK5Ipopt16ReferencedObject14ReferenceCountEv(ptr noundef nonnull align 8 dereferenceable(12) %11)
  %13 = icmp eq i32 %12, 0
  br i1 %13, label %14, label %24

14:                                               ; preds = %7
  %15 = getelementptr inbounds nuw %"class.Ipopt::SmartPtr.0", ptr %3, i32 0, i32 0
  %16 = load ptr, ptr %15, align 8, !tbaa !86
  %17 = icmp eq ptr %16, null
  br i1 %17, label %22, label %18

18:                                               ; preds = %14
  %19 = load ptr, ptr %16, align 8, !tbaa !33
  %20 = getelementptr inbounds ptr, ptr %19, i64 1
  %21 = load ptr, ptr %20, align 8
  call void %21(ptr noundef nonnull align 8 dereferenceable(205) %16) #3
  br label %22

22:                                               ; preds = %18, %14
  %23 = getelementptr inbounds nuw %"class.Ipopt::SmartPtr.0", ptr %3, i32 0, i32 0
  store ptr null, ptr %23, align 8, !tbaa !86
  br label %24

24:                                               ; preds = %22, %7
  br label %25

25:                                               ; preds = %24, %1
  ret void
}

; Function Attrs: mustprogress uwtable
define linkonce_odr noundef nonnull align 8 dereferenceable(8) ptr @_ZN5Ipopt8SmartPtrINS_6VectorEE14SetFromRawPtr_EPS1_(ptr noundef nonnull align 8 dereferenceable(8) %0, ptr noundef %1) #5 comdat align 2 {
  %3 = alloca ptr, align 8
  %4 = alloca ptr, align 8
  store ptr %0, ptr %3, align 8, !tbaa !55
  store ptr %1, ptr %4, align 8, !tbaa !52
  %5 = load ptr, ptr %3, align 8
  %6 = load ptr, ptr %4, align 8, !tbaa !52
  %7 = icmp ne ptr %6, null
  br i1 %7, label %8, label %10

8:                                                ; preds = %2
  %9 = load ptr, ptr %4, align 8, !tbaa !52
  call void @_ZNK5Ipopt16ReferencedObject6AddRefEPKNS_10ReferencerE(ptr noundef nonnull align 8 dereferenceable(12) %9, ptr noundef %5)
  br label %10

10:                                               ; preds = %8, %2
  call void @_ZN5Ipopt8SmartPtrINS_6VectorEE15ReleasePointer_Ev(ptr noundef nonnull align 8 dereferenceable(8) %5)
  %11 = load ptr, ptr %4, align 8, !tbaa !52
  %12 = getelementptr inbounds nuw %"class.Ipopt::SmartPtr.0", ptr %5, i32 0, i32 0
  store ptr %11, ptr %12, align 8, !tbaa !86
  ret ptr %5
}

; Function Attrs: mustprogress nounwind uwtable
define linkonce_odr noundef i32 @_ZNK5Ipopt11VectorSpace3DimEv(ptr noundef nonnull align 8 dereferenceable(16) %0) #4 comdat align 2 {
  %2 = alloca ptr, align 8
  store ptr %0, ptr %2, align 8, !tbaa !104
  %3 = load ptr, ptr %2, align 8
  %4 = getelementptr inbounds nuw %"class.Ipopt::VectorSpace", ptr %3, i32 0, i32 1
  %5 = load i32, ptr %4, align 4, !tbaa !105
  ret i32 %5
}

; Function Attrs: mustprogress nounwind uwtable
define linkonce_odr noundef ptr @_ZNK5Ipopt8SmartPtrIKNS_11VectorSpaceEEptEv(ptr noundef nonnull align 8 dereferenceable(8) %0) #4 comdat align 2 {
  %2 = alloca ptr, align 8
  store ptr %0, ptr %2, align 8, !tbaa !44
  %3 = load ptr, ptr %2, align 8
  %4 = getelementptr inbounds nuw %"class.Ipopt::SmartPtr.10", ptr %3, i32 0, i32 0
  %5 = load ptr, ptr %4, align 8, !tbaa !83
  ret ptr %5
}

; Function Attrs: mustprogress nounwind uwtable
define linkonce_odr void @_ZN5Ipopt8SmartPtrINS_6VectorEED2Ev(ptr noundef nonnull align 8 dereferenceable(8) %0) unnamed_addr #4 comdat align 2 {
  %2 = alloca ptr, align 8
  store ptr %0, ptr %2, align 8, !tbaa !55
  %3 = load ptr, ptr %2, align 8
  call void @_ZN5Ipopt8SmartPtrINS_6VectorEE15ReleasePointer_Ev(ptr noundef nonnull align 8 dereferenceable(8) %3)
  ret void
}

; Function Attrs: mustprogress uwtable
define linkonce_odr void @_ZN5Ipopt8SmartPtrINS_6VectorEEC2EPS1_(ptr noundef nonnull align 8 dereferenceable(8) %0, ptr noundef %1) unnamed_addr #5 comdat align 2 {
  %3 = alloca ptr, align 8
  %4 = alloca ptr, align 8
  store ptr %0, ptr %3, align 8, !tbaa !55
  store ptr %1, ptr %4, align 8, !tbaa !52
  %5 = load ptr, ptr %3, align 8
  %6 = getelementptr inbounds nuw %"class.Ipopt::SmartPtr.0", ptr %5, i32 0, i32 0
  store ptr null, ptr %6, align 8, !tbaa !86
  %7 = load ptr, ptr %4, align 8, !tbaa !52
  %8 = call noundef nonnull align 8 dereferenceable(8) ptr @_ZN5Ipopt8SmartPtrINS_6VectorEE14SetFromRawPtr_EPS1_(ptr noundef nonnull align 8 dereferenceable(8) %5, ptr noundef %7)
  ret void
}

; Function Attrs: inlinehint mustprogress uwtable
define linkonce_odr noundef ptr @_ZNK5Ipopt6Vector7MakeNewEv(ptr noundef nonnull align 8 dereferenceable(205) %0) #9 comdat align 2 {
  %2 = alloca ptr, align 8
  store ptr %0, ptr %2, align 8, !tbaa !52
  %3 = load ptr, ptr %2, align 8
  %4 = getelementptr inbounds nuw %"class.Ipopt::Vector", ptr %3, i32 0, i32 1
  %5 = call noundef ptr @_ZNK5Ipopt8SmartPtrIKNS_11VectorSpaceEEptEv(ptr noundef nonnull align 8 dereferenceable(8) %4)
  %6 = load ptr, ptr %5, align 8, !tbaa !33
  %7 = getelementptr inbounds ptr, ptr %6, i64 2
  %8 = load ptr, ptr %7, align 8
  %9 = call noundef ptr %8(ptr noundef nonnull align 8 dereferenceable(16) %5)
  ret ptr %9
}

; Function Attrs: mustprogress nounwind uwtable
define linkonce_odr noundef nonnull align 8 dereferenceable(205) ptr @_ZNK5Ipopt8SmartPtrINS_6VectorEEdeEv(ptr noundef nonnull align 8 dereferenceable(8) %0) #4 comdat align 2 {
  %2 = alloca ptr, align 8
  store ptr %0, ptr %2, align 8, !tbaa !55
  %3 = load ptr, ptr %2, align 8
  %4 = getelementptr inbounds nuw %"class.Ipopt::SmartPtr.0", ptr %3, i32 0, i32 0
  %5 = load ptr, ptr %4, align 8, !tbaa !86
  ret ptr %5
}

; Function Attrs: inlinehint mustprogress uwtable
define linkonce_odr noundef i32 @_ZNK5Ipopt6Vector3DimEv(ptr noundef nonnull align 8 dereferenceable(205) %0) #9 comdat align 2 {
  %2 = alloca ptr, align 8
  store ptr %0, ptr %2, align 8, !tbaa !52
  %3 = load ptr, ptr %2, align 8
  %4 = getelementptr inbounds nuw %"class.Ipopt::Vector", ptr %3, i32 0, i32 1
  %5 = call noundef ptr @_ZNK5Ipopt8SmartPtrIKNS_11VectorSpaceEEptEv(ptr noundef nonnull align 8 dereferenceable(8) %4)
  %6 = call noundef i32 @_ZNK5Ipopt11VectorSpace3DimEv(ptr noundef nonnull align 8 dereferenceable(16) %5)
  ret i32 %6
}

; Function Attrs: mustprogress nounwind uwtable
define linkonce_odr noundef ptr @_ZNK5Ipopt8SmartPtrINS_6VectorEEptEv(ptr noundef nonnull align 8 dereferenceable(8) %0) #4 comdat align 2 {
  %2 = alloca ptr, align 8
  store ptr %0, ptr %2, align 8, !tbaa !55
  %3 = load ptr, ptr %2, align 8
  %4 = getelementptr inbounds nuw %"class.Ipopt::SmartPtr.0", ptr %3, i32 0, i32 0
  %5 = load ptr, ptr %4, align 8, !tbaa !86
  ret ptr %5
}

; Function Attrs: mustprogress uwtable
define void @_ZNK5Ipopt14PointPerturber21MakeNewPerturbedPointEv(ptr dead_on_unwind noalias writable sret(%"class.Ipopt::SmartPtr.0") align 8 %0, ptr noundef nonnull align 8 dereferenceable(32) %1) #5 align 2 personality ptr @__gxx_personality_v0 {
  %3 = alloca ptr, align 8
  %4 = alloca ptr, align 8
  %5 = alloca i32, align 4
  %6 = alloca ptr, align 8
  %7 = alloca ptr, align 8
  %8 = alloca i32, align 4
  %9 = alloca double, align 8
  %10 = alloca i1, align 1
  %11 = alloca ptr, align 8
  %12 = alloca i32, align 4
  store ptr %0, ptr %3, align 8
  store ptr %1, ptr %4, align 8, !tbaa !109
  %13 = load ptr, ptr %4, align 8
  call void @llvm.lifetime.start.p0(i64 4, ptr %5) #3
  %14 = getelementptr inbounds nuw %"class.Ipopt::PointPerturber", ptr %13, i32 0, i32 1
  %15 = call noundef ptr @_ZNK5Ipopt8SmartPtrINS_6VectorEEptEv(ptr noundef nonnull align 8 dereferenceable(8) %14)
  %16 = call noundef i32 @_ZNK5Ipopt6Vector3DimEv(ptr noundef nonnull align 8 dereferenceable(205) %15)
  store i32 %16, ptr %5, align 4, !tbaa !57
  call void @llvm.lifetime.start.p0(i64 8, ptr %6) #3
  %17 = load i32, ptr %5, align 4, !tbaa !57
  %18 = sext i32 %17 to i64
  %19 = call { i64, i1 } @llvm.umul.with.overflow.i64(i64 %18, i64 8)
  %20 = extractvalue { i64, i1 } %19, 1
  %21 = extractvalue { i64, i1 } %19, 0
  %22 = select i1 %20, i64 -1, i64 %21
  %23 = call noalias noundef nonnull ptr @_Znam(i64 noundef %22) #18
  store ptr %23, ptr %6, align 8, !tbaa !53
  %24 = load i32, ptr %5, align 4, !tbaa !57
  %25 = getelementptr inbounds nuw %"class.Ipopt::PointPerturber", ptr %13, i32 0, i32 1
  %26 = call noundef nonnull align 8 dereferenceable(205) ptr @_ZNK5Ipopt8SmartPtrINS_6VectorEEdeEv(ptr noundef nonnull align 8 dereferenceable(8) %25)
  %27 = load ptr, ptr %6, align 8, !tbaa !53
  call void @_ZN5Ipopt13TripletHelper20FillValuesFromVectorEiRKNS_6VectorEPd(i32 noundef %24, ptr noundef nonnull align 8 dereferenceable(205) %26, ptr noundef %27)
  call void @llvm.lifetime.start.p0(i64 8, ptr %7) #3
  %28 = load i32, ptr %5, align 4, !tbaa !57
  %29 = sext i32 %28 to i64
  %30 = call { i64, i1 } @llvm.umul.with.overflow.i64(i64 %29, i64 8)
  %31 = extractvalue { i64, i1 } %30, 1
  %32 = extractvalue { i64, i1 } %30, 0
  %33 = select i1 %31, i64 -1, i64 %32
  %34 = call noalias noundef nonnull ptr @_Znam(i64 noundef %33) #18
  store ptr %34, ptr %7, align 8, !tbaa !53
  %35 = load i32, ptr %5, align 4, !tbaa !57
  %36 = getelementptr inbounds nuw %"class.Ipopt::PointPerturber", ptr %13, i32 0, i32 2
  %37 = call noundef nonnull align 8 dereferenceable(205) ptr @_ZNK5Ipopt8SmartPtrINS_6VectorEEdeEv(ptr noundef nonnull align 8 dereferenceable(8) %36)
  %38 = load ptr, ptr %7, align 8, !tbaa !53
  call void @_ZN5Ipopt13TripletHelper20FillValuesFromVectorEiRKNS_6VectorEPd(i32 noundef %35, ptr noundef nonnull align 8 dereferenceable(205) %37, ptr noundef %38)
  call void @llvm.lifetime.start.p0(i64 4, ptr %8) #3
  store i32 0, ptr %8, align 4, !tbaa !57
  br label %39

39:                                               ; preds = %60, %2
  %40 = load i32, ptr %8, align 4, !tbaa !57
  %41 = load i32, ptr %5, align 4, !tbaa !57
  %42 = icmp slt i32 %40, %41
  br i1 %42, label %44, label %43

43:                                               ; preds = %39
  call void @llvm.lifetime.end.p0(i64 4, ptr %8) #3
  br label %63

44:                                               ; preds = %39
  call void @llvm.lifetime.start.p0(i64 8, ptr %9) #3
  %45 = call noundef double @_ZN5Ipopt10IpRandom01Ev()
  store double %45, ptr %9, align 8, !tbaa !65
  %46 = load double, ptr %9, align 8, !tbaa !65
  %47 = fsub double %46, 5.000000e-01
  %48 = fmul double 2.000000e+00, %47
  %49 = load ptr, ptr %7, align 8, !tbaa !53
  %50 = load i32, ptr %8, align 4, !tbaa !57
  %51 = sext i32 %50 to i64
  %52 = getelementptr inbounds double, ptr %49, i64 %51
  %53 = load double, ptr %52, align 8, !tbaa !65
  %54 = load ptr, ptr %6, align 8, !tbaa !53
  %55 = load i32, ptr %8, align 4, !tbaa !57
  %56 = sext i32 %55 to i64
  %57 = getelementptr inbounds double, ptr %54, i64 %56
  %58 = load double, ptr %57, align 8, !tbaa !65
  %59 = call double @llvm.fmuladd.f64(double %48, double %53, double %58)
  store double %59, ptr %57, align 8, !tbaa !65
  call void @llvm.lifetime.end.p0(i64 8, ptr %9) #3
  br label %60

60:                                               ; preds = %44
  %61 = load i32, ptr %8, align 4, !tbaa !57
  %62 = add nsw i32 %61, 1
  store i32 %62, ptr %8, align 4, !tbaa !57
  br label %39, !llvm.loop !113

63:                                               ; preds = %43
  %64 = load ptr, ptr %7, align 8, !tbaa !53
  %65 = icmp eq ptr %64, null
  br i1 %65, label %67, label %66

66:                                               ; preds = %63
  call void @_ZdaPv(ptr noundef %64) #19
  br label %67

67:                                               ; preds = %66, %63
  store i1 false, ptr %10, align 1
  %68 = getelementptr inbounds nuw %"class.Ipopt::PointPerturber", ptr %13, i32 0, i32 1
  %69 = call noundef ptr @_ZNK5Ipopt8SmartPtrINS_6VectorEEptEv(ptr noundef nonnull align 8 dereferenceable(8) %68)
  %70 = call noundef ptr @_ZNK5Ipopt6Vector7MakeNewEv(ptr noundef nonnull align 8 dereferenceable(205) %69)
  call void @_ZN5Ipopt8SmartPtrINS_6VectorEEC2EPS1_(ptr noundef nonnull align 8 dereferenceable(8) %0, ptr noundef %70)
  %71 = load i32, ptr %5, align 4, !tbaa !57
  %72 = load ptr, ptr %6, align 8, !tbaa !53
  %73 = invoke noundef nonnull align 8 dereferenceable(205) ptr @_ZNK5Ipopt8SmartPtrINS_6VectorEEdeEv(ptr noundef nonnull align 8 dereferenceable(8) %0)
          to label %74 unwind label %81

74:                                               ; preds = %67
  invoke void @_ZN5Ipopt13TripletHelper17PutValuesInVectorEiPKdRNS_6VectorE(i32 noundef %71, ptr noundef %72, ptr noundef nonnull align 8 dereferenceable(205) %73)
          to label %75 unwind label %81

75:                                               ; preds = %74
  %76 = load ptr, ptr %6, align 8, !tbaa !53
  %77 = icmp eq ptr %76, null
  br i1 %77, label %79, label %78

78:                                               ; preds = %75
  call void @_ZdaPv(ptr noundef %76) #19
  br label %79

79:                                               ; preds = %78, %75
  store i1 true, ptr %10, align 1
  %80 = load i1, ptr %10, align 1
  br i1 %80, label %86, label %85

81:                                               ; preds = %74, %67
  %82 = landingpad { ptr, i32 }
          cleanup
  %83 = extractvalue { ptr, i32 } %82, 0
  store ptr %83, ptr %11, align 8
  %84 = extractvalue { ptr, i32 } %82, 1
  store i32 %84, ptr %12, align 4
  call void @_ZN5Ipopt8SmartPtrINS_6VectorEED2Ev(ptr noundef nonnull align 8 dereferenceable(8) %0) #3
  call void @llvm.lifetime.end.p0(i64 8, ptr %7) #3
  call void @llvm.lifetime.end.p0(i64 8, ptr %6) #3
  call void @llvm.lifetime.end.p0(i64 4, ptr %5) #3
  br label %87

85:                                               ; preds = %79
  call void @_ZN5Ipopt8SmartPtrINS_6VectorEED2Ev(ptr noundef nonnull align 8 dereferenceable(8) %0) #3
  br label %86

86:                                               ; preds = %85, %79
  call void @llvm.lifetime.end.p0(i64 8, ptr %7) #3
  call void @llvm.lifetime.end.p0(i64 8, ptr %6) #3
  call void @llvm.lifetime.end.p0(i64 4, ptr %5) #3
  ret void

87:                                               ; preds = %81
  %88 = load ptr, ptr %11, align 8
  %89 = load i32, ptr %12, align 4
  %90 = insertvalue { ptr, i32 } poison, ptr %88, 0
  %91 = insertvalue { ptr, i32 } %90, i32 %89, 1
  resume { ptr, i32 } %91
}