; Function Attrs: mustprogress uwtable
define void @_ZNK5Ipopt14PointPerturber21MakeNewPerturbedPointEv(ptr dead_on_unwind noalias writable writeonly sret(%"class.Ipopt::SmartPtr.0") align 8 captures(none) %0, ptr noundef nonnull readonly align 8 captures(none) dereferenceable(32) %1) local_unnamed_addr #4 align 2 personality ptr @__gxx_personality_v0 {
  %3 = getelementptr inbounds nuw i8, ptr %1, i64 16
  %4 = load ptr, ptr %3, align 8, !tbaa !42
  %5 = getelementptr inbounds nuw i8, ptr %4, i64 56
  %6 = load ptr, ptr %5, align 8, !tbaa !37
  %7 = getelementptr inbounds nuw i8, ptr %6, i64 12
  %8 = load i32, ptr %7, align 4, !tbaa !48
  %9 = sext i32 %8 to i64
  %10 = icmp slt i32 %8, 0
  %11 = shl nsw i64 %9, 3
  %12 = select i1 %10, i64 -1, i64 %11
  %13 = tail call noalias noundef nonnull ptr @_Znam(i64 noundef %12) #23
  tail call void @_ZN5Ipopt13TripletHelper20FillValuesFromVectorEiRKNS_6VectorEPd(i32 noundef %8, ptr noundef nonnull align 8 dereferenceable(205) %4, ptr noundef nonnull %13)
  %14 = tail call noalias noundef nonnull ptr @_Znam(i64 noundef %12) #23
  %15 = getelementptr inbounds nuw i8, ptr %1, i64 24
  %16 = load ptr, ptr %15, align 8, !tbaa !42
  tail call void @_ZN5Ipopt13TripletHelper20FillValuesFromVectorEiRKNS_6VectorEPd(i32 noundef %8, ptr noundef nonnull align 8 dereferenceable(205) %16, ptr noundef nonnull %14)
  %17 = icmp sgt i32 %8, 0
  br i1 %17, label %.lr.ph.preheader, label %._crit_edge

.lr.ph.preheader:                                 ; preds = %2
  %wide.trip.count = zext nneg i32 %8 to i64
  br label %.lr.ph

.lr.ph:                                           ; preds = %.lr.ph.preheader, %.lr.ph
  %indvars.iv = phi i64 [ 0, %.lr.ph.preheader ], [ %indvars.iv.next, %.lr.ph ]
  %18 = tail call noundef double @_ZN5Ipopt10IpRandom01Ev()
  %19 = fadd double %18, -5.000000e-01
  %20 = fmul double %19, 2.000000e+00
  %21 = getelementptr inbounds nuw double, ptr %14, i64 %indvars.iv
  %22 = load double, ptr %21, align 8, !tbaa !54
  %23 = getelementptr inbounds nuw double, ptr %13, i64 %indvars.iv
  %24 = load double, ptr %23, align 8, !tbaa !54
  %25 = tail call double @llvm.fmuladd.f64(double %20, double %22, double %24)
  store double %25, ptr %23, align 8, !tbaa !54
  %indvars.iv.next = add nuw nsw i64 %indvars.iv, 1
  %exitcond.not = icmp eq i64 %indvars.iv.next, %wide.trip.count
  br i1 %exitcond.not, label %._crit_edge, label %.lr.ph, !llvm.loop !55

._crit_edge:                                      ; preds = %.lr.ph, %2
  tail call void @_ZdaPv(ptr noundef nonnull %14) #21
  %26 = load ptr, ptr %3, align 8, !tbaa !42
  %27 = getelementptr inbounds nuw i8, ptr %26, i64 56
  %28 = load ptr, ptr %27, align 8, !tbaa !37
  %29 = load ptr, ptr %28, align 8, !tbaa !35
  %30 = getelementptr inbounds nuw i8, ptr %29, i64 16
  %31 = load ptr, ptr %30, align 8
  %32 = tail call noundef ptr %31(ptr noundef nonnull align 8 dereferenceable(16) %28)
  %.not.i.i = icmp eq ptr %32, null
  br i1 %.not.i.i, label %_ZN5Ipopt8SmartPtrINS_6VectorEEC2EPS1_.exit, label %33

33:                                               ; preds = %._crit_edge
  %34 = getelementptr inbounds nuw i8, ptr %32, i64 8
  %35 = load i32, ptr %34, align 8, !tbaa !41
  %36 = add nsw i32 %35, 1
  store i32 %36, ptr %34, align 8, !tbaa !41
  br label %_ZN5Ipopt8SmartPtrINS_6VectorEEC2EPS1_.exit

_ZN5Ipopt8SmartPtrINS_6VectorEEC2EPS1_.exit:      ; preds = %._crit_edge, %33
  store ptr %32, ptr %0, align 8, !tbaa !42
  invoke void @_ZN5Ipopt13TripletHelper17PutValuesInVectorEiPKdRNS_6VectorE(i32 noundef %8, ptr noundef nonnull %13, ptr noundef nonnull align 8 dereferenceable(205) %32)
          to label %37 unwind label %38

37:                                               ; preds = %_ZN5Ipopt8SmartPtrINS_6VectorEEC2EPS1_.exit
  tail call void @_ZdaPv(ptr noundef nonnull %13) #21
  ret void

38:                                               ; preds = %_ZN5Ipopt8SmartPtrINS_6VectorEEC2EPS1_.exit
  %39 = landingpad { ptr, i32 }
          cleanup
  %40 = getelementptr inbounds nuw i8, ptr %32, i64 8
  %41 = load i32, ptr %40, align 8, !tbaa !41
  %42 = add nsw i32 %41, -1
  store i32 %42, ptr %40, align 8, !tbaa !41
  %43 = icmp eq i32 %42, 0
  br i1 %43, label %44, label %_ZN5Ipopt8SmartPtrINS_6VectorEED2Ev.exit

44:                                               ; preds = %38
  %45 = load ptr, ptr %32, align 8, !tbaa !35
  %46 = getelementptr inbounds nuw i8, ptr %45, i64 8
  %47 = load ptr, ptr %46, align 8
  tail call void %47(ptr noundef nonnull align 8 dereferenceable(205) %32) #20
  store ptr null, ptr %0, align 8, !tbaa !42
  br label %_ZN5Ipopt8SmartPtrINS_6VectorEED2Ev.exit

_ZN5Ipopt8SmartPtrINS_6VectorEED2Ev.exit:         ; preds = %38, %44
  resume { ptr, i32 } %39
}